; Function Attrs: nounwind uwtable
define internal void @CodeLike_dealloc(ptr noundef %0) #0 {
  %2 = getelementptr inbounds nuw i8, ptr %0, i64 16
  %3 = load ptr, ptr %2, align 8, !tbaa !6
  %.not = icmp eq ptr %3, null
  br i1 %.not, label %5, label %4

4:                                                ; preds = %1
  tail call void @PyMem_Free(ptr noundef nonnull %3) #4
  br label %5

5:                                                ; preds = %4, %1
  %6 = getelementptr i8, ptr %0, i64 8
  %.val = load ptr, ptr %6, align 8, !tbaa !14
  %7 = getelementptr inbounds nuw i8, ptr %.val, i64 320
  %8 = load ptr, ptr %7, align 8, !tbaa !15
  tail call void %8(ptr noundef nonnull %0) #4
  ret void
}